; Function Attrs: nounwind uwtable
define internal fastcc void @psset_maybe_remove_purge_list(ptr noundef captures(none) %0, ptr noundef %1) unnamed_addr #0 {
  %3 = getelementptr i8, ptr %1, i64 19
  %.val = load i8, ptr %3, align 1, !tbaa !39, !range !23, !noundef !24
  %4 = trunc nuw i8 %.val to i1
  br i1 %4, label %5, label %67

5:                                                ; preds = %2
  %6 = getelementptr i8, ptr %1, i64 104
  %.val6.i = load i64, ptr %6, align 8, !tbaa !25
  %7 = icmp eq i64 %.val6.i, 0
  br i1 %7, label %8, label %11

8:                                                ; preds = %5
  %9 = getelementptr i8, ptr %1, i64 16
  %.val9.i = load i8, ptr %9, align 8, !tbaa !30, !range !23, !noundef !24
  %10 = trunc nuw i8 %.val9.i to i1
  %..i = select i1 %10, i64 127, i64 126
  br label %psset_purge_list_ind.exit

11:                                               ; preds = %5
  %12 = getelementptr i8, ptr %1, i64 176
  %.val7.i = load i64, ptr %12, align 8, !tbaa !26
  %13 = sub i64 %.val7.i, %.val6.i
  %14 = shl i64 %13, 12
  %15 = tail call i64 @je_sz_psz_quantize_floor(i64 noundef %14) #9
  %16 = icmp ugt i64 %15, 8070450532247928832
  br i1 %16, label %sz_psz2ind.exit.i, label %17, !prof !33

17:                                               ; preds = %11
  %18 = icmp ne i64 %15, 0
  tail call void @llvm.assume(i1 %18)
  %19 = add nsw i64 %15, -1
  %20 = tail call range(i64 0, 65) i64 @llvm.ctlz.i64(i64 %19, i1 false)
  %21 = trunc nuw nsw i64 %20 to i32
  %22 = tail call i32 @llvm.usub.sat.i32(i32 50, i32 %21)
  %23 = icmp samesign ult i64 %15, 16385
  %24 = add nuw nsw i32 %22, 11
  %25 = zext nneg i32 %24 to i64
  %26 = select i1 %23, i64 12, i64 %25
  %27 = lshr i64 %19, %26
  %28 = trunc i64 %27 to i32
  %29 = shl nuw nsw i32 %22, 3
  %30 = shl i32 %28, 1
  %31 = and i32 %30, 6
  %32 = or disjoint i32 %31, %29
  %33 = zext nneg i32 %32 to i64
  br label %sz_psz2ind.exit.i

sz_psz2ind.exit.i:                                ; preds = %17, %11
  %.0.i.i = phi i64 [ %33, %17 ], [ 398, %11 ]
  %34 = getelementptr i8, ptr %1, i64 16
  %.val8.i = load i8, ptr %34, align 8, !tbaa !30, !range !23, !noundef !24
  %35 = xor i8 %.val8.i, 1
  %not..i = zext nneg i8 %35 to i64
  %36 = or disjoint i64 %.0.i.i, %not..i
  br label %psset_purge_list_ind.exit

psset_purge_list_ind.exit:                        ; preds = %8, %sz_psz2ind.exit.i
  %.0.i = phi i64 [ %36, %sz_psz2ind.exit.i ], [ %..i, %8 ]
  %37 = getelementptr inbounds nuw i8, ptr %0, i64 4280
  %38 = getelementptr inbounds nuw [128 x %struct.hpdata_purge_list_t], ptr %37, i64 0, i64 %.0.i
  %39 = load ptr, ptr %38, align 8, !tbaa !34
  %40 = icmp eq ptr %39, %1
  br i1 %40, label %41, label %44

41:                                               ; preds = %psset_purge_list_ind.exit
  %42 = getelementptr inbounds nuw i8, ptr %39, i64 64
  %43 = load ptr, ptr %42, align 8, !tbaa !40
  store ptr %43, ptr %38, align 8, !tbaa !34
  br label %44

44:                                               ; preds = %41, %psset_purge_list_ind.exit
  %.val8.pr = phi ptr [ %43, %41 ], [ %39, %psset_purge_list_ind.exit ]
  %.not.i = icmp eq ptr %.val8.pr, %1
  br i1 %.not.i, label %hpdata_purge_list_remove.exit.thread, label %hpdata_purge_list_remove.exit

hpdata_purge_list_remove.exit.thread:             ; preds = %44
  store ptr null, ptr %38, align 8, !tbaa !34
  br label %58

hpdata_purge_list_remove.exit:                    ; preds = %44
  %45 = getelementptr inbounds nuw i8, ptr %1, i64 64
  %46 = load ptr, ptr %45, align 8, !tbaa !40
  %47 = getelementptr inbounds nuw i8, ptr %46, i64 72
  %48 = load ptr, ptr %47, align 8, !tbaa !41
  %49 = getelementptr inbounds nuw i8, ptr %1, i64 72
  %50 = load ptr, ptr %49, align 8, !tbaa !41
  %51 = getelementptr inbounds nuw i8, ptr %50, i64 64
  store ptr %48, ptr %51, align 8, !tbaa !40
  %52 = load ptr, ptr %45, align 8, !tbaa !40
  %53 = getelementptr inbounds nuw i8, ptr %52, i64 72
  store ptr %50, ptr %53, align 8, !tbaa !41
  store ptr %48, ptr %49, align 8, !tbaa !41
  %54 = load ptr, ptr %53, align 8, !tbaa !41
  %55 = getelementptr inbounds nuw i8, ptr %54, i64 64
  store ptr %52, ptr %55, align 8, !tbaa !40
  %56 = getelementptr inbounds nuw i8, ptr %48, i64 64
  store ptr %1, ptr %56, align 8, !tbaa !40
  %57 = icmp eq ptr %.val8.pr, null
  br i1 %57, label %58, label %67

58:                                               ; preds = %hpdata_purge_list_remove.exit.thread, %hpdata_purge_list_remove.exit
  %59 = getelementptr inbounds nuw i8, ptr %0, i64 5304
  %60 = lshr i64 %.0.i, 6
  %61 = and i64 %.0.i, 63
  %62 = shl nuw i64 1, %61
  %63 = xor i64 %62, -1
  %64 = getelementptr inbounds nuw i64, ptr %59, i64 %60
  %65 = load i64, ptr %64, align 8, !tbaa !38
  %66 = and i64 %65, %63
  store i64 %66, ptr %64, align 8, !tbaa !38
  br label %67

67:                                               ; preds = %hpdata_purge_list_remove.exit, %58, %2
  ret void
}